target datalayout = "e-m:e-p270:32:32-p271:32:32-p272:64:64-i64:64-i128:128-f80:128-n8:16:32:64-S128"
target triple = "x86_64-pc-linux-gnu"

@.str.73 = private unnamed_addr constant [4 x i8] c"off\00", align 1
@.str.74 = private unnamed_addr constant [8 x i8] c"summary\00", align 1
@.str.75 = private unnamed_addr constant [7 x i8] c"detail\00", align 1

; Function Attrs: mustprogress nounwind uwtable
define hidden noundef i32 @_ZN7NMTUtil20parse_tracking_levelEPKc(ptr noundef %0) #1 align 2 {
  %2 = alloca i32, align 4
  %3 = alloca ptr, align 8
  store ptr %0, ptr %3, align 8
  %4 = load ptr, ptr %3, align 8
  %5 = icmp ne ptr %4, null
  br i1 %5, label %6, label %24

6:                                                ; preds = %1
  %7 = load ptr, ptr %3, align 8
  %8 = call i32 @strcmp(ptr noundef %7, ptr noundef @.str.74) #5
  %9 = icmp eq i32 %8, 0
  br i1 %9, label %10, label %11

10:                                               ; preds = %6
  store i32 2, ptr %2, align 4
  br label %25

11:                                               ; preds = %6
  %12 = load ptr, ptr %3, align 8
  %13 = call i32 @strcmp(ptr noundef %12, ptr noundef @.str.75) #5
  %14 = icmp eq i32 %13, 0
  br i1 %14, label %15, label %16

15:                                               ; preds = %11
  store i32 3, ptr %2, align 4
  br label %25

16:                                               ; preds = %11
  %17 = load ptr, ptr %3, align 8
  %18 = call i32 @strcmp(ptr noundef %17, ptr noundef @.str.73) #5
  %19 = icmp eq i32 %18, 0
  br i1 %19, label %20, label %21

20:                                               ; preds = %16
  store i32 1, ptr %2, align 4
  br label %25

21:                                               ; preds = %16
  br label %22

22:                                               ; preds = %21
  br label %23

23:                                               ; preds = %22
  br label %24

24:                                               ; preds = %23, %1
  store i32 0, ptr %2, align 4
  br label %25

25:                                               ; preds = %24, %20, %15, %10
  %26 = load i32, ptr %2, align 4
  ret i32 %26
}