; Function Attrs: mustprogress nofree nounwind willreturn memory(argmem: read) uwtable
define hidden noundef range(i32 0, 4) i32 @_ZN7NMTUtil20parse_tracking_levelEPKc(ptr noundef readonly %0) local_unnamed_addr #5 align 2 {
  %.not = icmp eq ptr %0, null
  br i1 %.not, label %11, label %2

2:                                                ; preds = %1
  %3 = tail call i32 @strcmp(ptr noundef nonnull dereferenceable(1) %0, ptr noundef nonnull dereferenceable(8) @.str.74) #8
  %4 = icmp eq i32 %3, 0
  br i1 %4, label %12, label %5

5:                                                ; preds = %2
  %6 = tail call i32 @strcmp(ptr noundef nonnull dereferenceable(1) %0, ptr noundef nonnull dereferenceable(7) @.str.75) #8
  %7 = icmp eq i32 %6, 0
  br i1 %7, label %12, label %8

8:                                                ; preds = %5
  %9 = tail call i32 @strcmp(ptr noundef nonnull dereferenceable(1) %0, ptr noundef nonnull dereferenceable(4) @.str.73) #8
  %10 = icmp eq i32 %9, 0
  br i1 %10, label %12, label %11

11:                                               ; preds = %8, %1
  br label %12

12:                                               ; preds = %8, %5, %2, %11
  %.0 = phi i32 [ 0, %11 ], [ 2, %2 ], [ 3, %5 ], [ 1, %8 ]
  ret i32 %.0
}